target datalayout = "e-m:e-p270:32:32-p271:32:32-p272:64:64-i64:64-i128:128-f80:128-n8:16:32:64-S128"
target triple = "x86_64-pc-linux-gnu"

%class.Timer = type { %"class.std::__cxx11::basic_string", i32, i64, i64, %"class.std::chrono::time_point", i64 }
%"class.std::__cxx11::basic_string" = type { %"struct.std::__cxx11::basic_string<char>::_Alloc_hider", i64, %union.anon }
%"struct.std::__cxx11::basic_string<char>::_Alloc_hider" = type { ptr }
%union.anon = type { i64, [8 x i8] }
%"class.std::chrono::time_point" = type { %"class.std::chrono::duration" }
%"class.std::chrono::duration" = type { i64 }

; Function Attrs: mustprogress nounwind uwtable
define void @_ZN5TimermIERKS_(ptr noundef nonnull align 8 dereferenceable(72) %0, ptr noundef nonnull align 8 dereferenceable(72) %1) #5 align 2 {
  %3 = alloca ptr, align 8
  %4 = alloca ptr, align 8
  store ptr %0, ptr %3, align 8
  store ptr %1, ptr %4, align 8
  %5 = load ptr, ptr %3, align 8
  %6 = load ptr, ptr %4, align 8
  %7 = getelementptr inbounds nuw %class.Timer, ptr %6, i32 0, i32 2
  %8 = load i64, ptr %7, align 8
  %9 = getelementptr inbounds nuw %class.Timer, ptr %5, i32 0, i32 2
  %10 = load i64, ptr %9, align 8
  %11 = icmp sgt i64 %8, %10
  br i1 %11, label %12, label %14

12:                                               ; preds = %2
  %13 = getelementptr inbounds nuw %class.Timer, ptr %5, i32 0, i32 2
  store i64 0, ptr %13, align 8
  br label %21

14:                                               ; preds = %2
  %15 = load ptr, ptr %4, align 8
  %16 = getelementptr inbounds nuw %class.Timer, ptr %15, i32 0, i32 2
  %17 = load i64, ptr %16, align 8
  %18 = getelementptr inbounds nuw %class.Timer, ptr %5, i32 0, i32 2
  %19 = load i64, ptr %18, align 8
  %20 = sub nsw i64 %19, %17
  store i64 %20, ptr %18, align 8
  br label %21

21:                                               ; preds = %14, %12
  %22 = load ptr, ptr %4, align 8
  %23 = getelementptr inbounds nuw %class.Timer, ptr %22, i32 0, i32 3
  %24 = load i64, ptr %23, align 8
  %25 = getelementptr inbounds nuw %class.Timer, ptr %5, i32 0, i32 3
  %26 = load i64, ptr %25, align 8
  %27 = icmp sgt i64 %24, %26
  br i1 %27, label %28, label %30

28:                                               ; preds = %21
  %29 = getelementptr inbounds nuw %class.Timer, ptr %5, i32 0, i32 3
  store i64 0, ptr %29, align 8
  br label %37

30:                                               ; preds = %21
  %31 = load ptr, ptr %4, align 8
  %32 = getelementptr inbounds nuw %class.Timer, ptr %31, i32 0, i32 3
  %33 = load i64, ptr %32, align 8
  %34 = getelementptr inbounds nuw %class.Timer, ptr %5, i32 0, i32 3
  %35 = load i64, ptr %34, align 8
  %36 = sub nsw i64 %35, %33
  store i64 %36, ptr %34, align 8
  br label %37

37:                                               ; preds = %30, %28
  ret void
}