; Function Attrs: mustprogress nofree norecurse nosync nounwind willreturn memory(argmem: readwrite) uwtable
define void @_ZN5TimermIERKS_(ptr noundef nonnull align 8 captures(none) dereferenceable(72) %0, ptr noundef nonnull readonly align 8 captures(none) dereferenceable(72) %1) local_unnamed_addr #6 align 2 {
  %3 = getelementptr inbounds nuw i8, ptr %1, i64 40
  %4 = load i64, ptr %3, align 8
  %5 = getelementptr inbounds nuw i8, ptr %0, i64 40
  %6 = load i64, ptr %5, align 8
  %7 = icmp sgt i64 %4, %6
  %8 = sub nsw i64 %6, %4
  %storemerge = select i1 %7, i64 0, i64 %8
  store i64 %storemerge, ptr %5, align 8
  %9 = getelementptr inbounds nuw i8, ptr %1, i64 48
  %10 = load i64, ptr %9, align 8
  %11 = getelementptr inbounds nuw i8, ptr %0, i64 48
  %12 = load i64, ptr %11, align 8
  %13 = icmp sgt i64 %10, %12
  %14 = sub nsw i64 %12, %10
  %storemerge8 = select i1 %13, i64 0, i64 %14
  store i64 %storemerge8, ptr %11, align 8
  ret void
}